; Function Attrs: nounwind uwtable
define void @dt_bauhaus_slider_set_curve(ptr noundef %0, ptr noundef %1) local_unnamed_addr #0 {
  %3 = load atomic i64, ptr @dt_bh_get_type.static_g_define_type_id seq_cst, align 8
  %.not.i.i = icmp eq i64 %3, 0
  br i1 %.not.i.i, label %4, label %DT_BAUHAUS_WIDGET.exit

4:                                                ; preds = %2
  %5 = tail call i32 @g_once_init_enter(ptr noundef nonnull @dt_bh_get_type.static_g_define_type_id) #19
  %.not4.i.i = icmp eq i32 %5, 0
  br i1 %.not4.i.i, label %DT_BAUHAUS_WIDGET.exit, label %6

6:                                                ; preds = %4
  %7 = tail call fastcc i64 @dt_bh_get_type_once()
  tail call void @g_once_init_leave(ptr noundef nonnull @dt_bh_get_type.static_g_define_type_id, i64 noundef %7) #19
  br label %DT_BAUHAUS_WIDGET.exit

DT_BAUHAUS_WIDGET.exit:                           ; preds = %2, %4, %6
  %8 = load i64, ptr @dt_bh_get_type.static_g_define_type_id, align 8, !tbaa !6
  %9 = tail call ptr @g_type_check_instance_cast(ptr noundef %0, i64 noundef %8) #19
  %10 = getelementptr inbounds nuw i8, ptr %9, i64 40
  %11 = load i32, ptr %10, align 8, !tbaa !105
  %.not = icmp eq i32 %11, 1
  br i1 %.not, label %12, label %20

12:                                               ; preds = %DT_BAUHAUS_WIDGET.exit
  %13 = getelementptr inbounds nuw i8, ptr %9, i64 408
  %14 = icmp eq ptr %1, null
  %spec.store.select = select i1 %14, ptr @_default_linear_curve, ptr %1
  %15 = getelementptr inbounds nuw i8, ptr %9, i64 512
  %16 = load ptr, ptr %15, align 8, !tbaa !142
  %17 = load float, ptr %13, align 8, !tbaa !143
  %18 = tail call reassoc nsz arcp contract afn float %16(float noundef %17, i32 noundef 2) #19
  %19 = tail call reassoc nsz arcp contract afn float %spec.store.select(float noundef %18, i32 noundef 1) #19
  store float %19, ptr %13, align 8, !tbaa !143
  store ptr %spec.store.select, ptr %15, align 8, !tbaa !142
  br label %20

20:                                               ; preds = %DT_BAUHAUS_WIDGET.exit, %12
  ret void
}